target datalayout = "e-m:e-p270:32:32-p271:32:32-p272:64:64-i64:64-i128:128-f80:128-n8:16:32:64-S128"
target triple = "x86_64-pc-linux-gnu"

%struct.slurm_conf_t = type { i64, ptr, i16, ptr, ptr, ptr, ptr, ptr, i16, ptr, ptr, ptr, ptr, ptr, ptr, ptr, i16, ptr, ptr, ptr, ptr, i16, ptr, ptr, ptr, i64, ptr, ptr, ptr, ptr, i16, ptr, ptr, i16, i32, ptr, i32, ptr, i32, i32, ptr, ptr, i64, i64, ptr, i16, i16, ptr, i32, i32, ptr, i32, ptr, i32, i16, i16, i16, ptr, i16, i16, ptr, ptr, i32, i16, i16, ptr, i32, i16, ptr, ptr, ptr, ptr, i16, ptr, ptr, ptr, ptr, i32, ptr, ptr, ptr, ptr, i16, i16, ptr, i32, i32, i32, i16, i16, ptr, ptr, i16, ptr, ptr, i32, i32, i32, i32, i32, i64, i32, i32, i16, ptr, ptr, i32, ptr, ptr, ptr, i16, i32, ptr, ptr, i16, ptr, ptr, i32, i16, ptr, ptr, ptr, ptr, i32, i32, i16, i16, i32, ptr, i16, ptr, i32, i32, i32, i32, i32, i32, ptr, i16, ptr, ptr, i32, i16, ptr, i32, i16, i16, ptr, ptr, ptr, i16, ptr, ptr, ptr, ptr, i16, i16, ptr, i16, ptr, i16, ptr, i16, ptr, i16, ptr, ptr, ptr, ptr, i16, ptr, ptr, ptr, i32, ptr, i32, ptr, ptr, i16, ptr, ptr, i32, i16, ptr, ptr, i16, i16, ptr, i16, ptr, ptr, ptr, i32, ptr, i16, i16, ptr, ptr, ptr, ptr, ptr, ptr, ptr, ptr, i16, i32, i16, ptr, ptr, ptr, ptr, i32, ptr, ptr, ptr, i16, ptr, ptr, ptr, i16, ptr, i16, ptr, i16, i16, ptr }
%struct.part_record = type { i32, ptr, ptr, ptr, ptr, ptr, ptr, i32, ptr, ptr, ptr, ptr, ptr, i32, i64, i32, ptr, ptr, ptr, ptr, ptr, i32, i32, ptr, i32, i32, i64, i32, i32, i16, i32, i32, i32, i32, ptr, ptr, ptr, ptr, ptr, double, i16, i16, i16, i16, ptr, ptr, i16, i16, i32, i16, i32, i32, i32, i32, i16, ptr, ptr, ptr }
%struct.gs_part = type { ptr, i16, i32, ptr, i32, i32, ptr, i32, i32, ptr, ptr, i16, ptr }
%struct.job_record = type { i32, ptr, ptr, ptr, ptr, i16, i32, i32, i32, ptr, i32, ptr, ptr, i16, ptr, double, i64, ptr, ptr, ptr, ptr, ptr, ptr, i32, ptr, i32, i64, i64, i32, i32, ptr, i16, i64, i64, i8, i32, ptr, ptr, ptr, ptr, ptr, ptr, ptr, ptr, i32, ptr, ptr, i32, ptr, i32, ptr, i32, ptr, i32, ptr, ptr, ptr, ptr, ptr, ptr, i32, i16, i64, ptr, ptr, ptr, ptr, %struct.acct_policy_limit_set_t, i16, ptr, ptr, ptr, ptr, ptr, i32, ptr, ptr, ptr, ptr, ptr, i32, i32, ptr, ptr, ptr, i16, ptr, ptr, i8, ptr, ptr, i64, i64, i8, i32, i32, i8, i32, ptr, i32, i64, i32, ptr, ptr, ptr, i8, i16, i64, i32, ptr, ptr, ptr, ptr, ptr, i16, i32, ptr, ptr, ptr, ptr, i32, ptr, i32, i16, i64, ptr, i32, i32, ptr, i64, ptr, ptr, i64, i32, i32, i64, i32, i32, ptr, ptr, ptr, ptr, ptr, ptr, ptr, ptr, ptr, ptr, ptr, ptr, i32, ptr, i16, i16, i16, i16, ptr, i32, i32, i8, i64 }
%struct.acct_policy_limit_set_t = type { i16, i16, ptr }
%struct.gs_job = type { i32, ptr, i16, i16 }

@slurm_conf = external global %struct.slurm_conf_t, align 8
@gs_part_list = internal global ptr null, align 8
@job_list = external global ptr, align 8
@.str.18 = private unnamed_addr constant [30 x i8] c"GANG: gang: %s: job_list NULL\00", align 1
@__func__._scan_slurm_job_list = private unnamed_addr constant [21 x i8] c"_scan_slurm_job_list\00", align 1
@.str.19 = private unnamed_addr constant [35 x i8] c"GANG: gang: %s: job_list exists...\00", align 1
@.str.20 = private unnamed_addr constant [29 x i8] c"GANG: gang: %s: checking %pJ\00", align 1

; Function Attrs: nounwind uwtable
define internal void @_update_all_active_rows() #0 {
  %1 = alloca ptr, align 8
  %2 = alloca ptr, align 8
  call void @llvm.lifetime.start.p0(i64 8, ptr %1) #8
  call void @llvm.lifetime.start.p0(i64 8, ptr %2) #8
  %3 = load ptr, ptr @gs_part_list, align 8
  call void @list_sort(ptr noundef %3, ptr noundef @_sort_partitions)
  %4 = load ptr, ptr @gs_part_list, align 8
  %5 = call ptr @list_iterator_create(ptr noundef %4)
  store ptr %5, ptr %1, align 8
  br label %6

6:                                                ; preds = %10, %0
  %7 = load ptr, ptr %1, align 8
  %8 = call ptr @list_next(ptr noundef %7)
  store ptr %8, ptr %2, align 8
  %9 = icmp ne ptr %8, null
  br i1 %9, label %10, label %12

10:                                               ; preds = %6
  %11 = load ptr, ptr %2, align 8
  call void @_update_active_row(ptr noundef %11, i32 noundef 1)
  br label %6, !llvm.loop !14

12:                                               ; preds = %6
  %13 = load ptr, ptr %1, align 8
  call void @list_iterator_destroy(ptr noundef %13)
  call void @llvm.lifetime.end.p0(i64 8, ptr %2) #8
  call void @llvm.lifetime.end.p0(i64 8, ptr %1) #8
  ret void
}

; Function Attrs: nounwind uwtable
define internal i32 @_find_job_index(ptr noundef %0, i32 noundef %1) #0 {
  %3 = alloca i32, align 4
  %4 = alloca ptr, align 8
  %5 = alloca i32, align 4
  %6 = alloca i32, align 4
  %7 = alloca i32, align 4
  store ptr %0, ptr %4, align 8
  store i32 %1, ptr %5, align 4
  call void @llvm.lifetime.start.p0(i64 4, ptr %6) #8
  store i32 0, ptr %6, align 4
  br label %8

8:                                                ; preds = %31, %2
  %9 = load i32, ptr %6, align 4
  %10 = load ptr, ptr %4, align 8
  %11 = getelementptr inbounds nuw %struct.gs_part, ptr %10, i32 0, i32 2
  %12 = load i32, ptr %11, align 4
  %13 = icmp ult i32 %9, %12
  br i1 %13, label %14, label %34

14:                                               ; preds = %8
  %15 = load ptr, ptr %4, align 8
  %16 = getelementptr inbounds nuw %struct.gs_part, ptr %15, i32 0, i32 3
  %17 = load ptr, ptr %16, align 8
  %18 = load i32, ptr %6, align 4
  %19 = sext i32 %18 to i64
  %20 = getelementptr inbounds ptr, ptr %17, i64 %19
  %21 = load ptr, ptr %20, align 8
  %22 = getelementptr inbounds nuw %struct.gs_job, ptr %21, i32 0, i32 1
  %23 = load ptr, ptr %22, align 8
  %24 = getelementptr inbounds nuw %struct.job_record, ptr %23, i32 0, i32 53
  %25 = load i32, ptr %24, align 8
  %26 = load i32, ptr %5, align 4
  %27 = icmp eq i32 %25, %26
  br i1 %27, label %28, label %30

28:                                               ; preds = %14
  %29 = load i32, ptr %6, align 4
  store i32 %29, ptr %3, align 4
  store i32 1, ptr %7, align 4
  br label %35

30:                                               ; preds = %14
  br label %31

31:                                               ; preds = %30
  %32 = load i32, ptr %6, align 4
  %33 = add nsw i32 %32, 1
  store i32 %33, ptr %6, align 4
  br label %8, !llvm.loop !22

34:                                               ; preds = %8
  store i32 -1, ptr %3, align 4
  store i32 1, ptr %7, align 4
  br label %35

35:                                               ; preds = %34, %28
  call void @llvm.lifetime.end.p0(i64 4, ptr %6) #8
  %36 = load i32, ptr %3, align 4
  ret i32 %36
}

; Function Attrs: nounwind uwtable
define internal void @_scan_slurm_job_list() #0 {
  %1 = alloca ptr, align 8
  %2 = alloca ptr, align 8
  %3 = alloca i32, align 4
  %4 = alloca ptr, align 8
  %5 = alloca ptr, align 8
  %6 = alloca i32, align 4
  call void @llvm.lifetime.start.p0(i64 8, ptr %1) #8
  call void @llvm.lifetime.start.p0(i64 8, ptr %2) #8
  call void @llvm.lifetime.start.p0(i64 4, ptr %3) #8
  call void @llvm.lifetime.start.p0(i64 8, ptr %4) #8
  call void @llvm.lifetime.start.p0(i64 8, ptr %5) #8
  %7 = load ptr, ptr @job_list, align 8
  %8 = icmp ne ptr %7, null
  br i1 %8, label %25, label %9

9:                                                ; preds = %0
  br label %10

10:                                               ; preds = %9
  %11 = load i64, ptr getelementptr inbounds nuw (%struct.slurm_conf_t, ptr @slurm_conf, i32 0, i32 42), align 8
  %12 = and i64 %11, 8192
  %13 = icmp ne i64 %12, 0
  br i1 %13, label %14, label %22

14:                                               ; preds = %10
  br label %15

15:                                               ; preds = %14
  %16 = call i32 @get_log_level()
  %17 = icmp sge i32 %16, 4
  br i1 %17, label %18, label %19

18:                                               ; preds = %15
  call void (i32, ptr, ...) @log_var(i32 noundef 4, ptr noundef @.str.18, ptr noundef @__func__._scan_slurm_job_list)
  br label %19

19:                                               ; preds = %18, %15
  br label %20

20:                                               ; preds = %19
  br label %21

21:                                               ; preds = %20
  br label %22

22:                                               ; preds = %21, %10
  br label %23

23:                                               ; preds = %22
  br label %24

24:                                               ; preds = %23
  store i32 1, ptr %6, align 4
  br label %156

25:                                               ; preds = %0
  br label %26

26:                                               ; preds = %25
  %27 = load i64, ptr getelementptr inbounds nuw (%struct.slurm_conf_t, ptr @slurm_conf, i32 0, i32 42), align 8
  %28 = and i64 %27, 8192
  %29 = icmp ne i64 %28, 0
  br i1 %29, label %30, label %38

30:                                               ; preds = %26
  br label %31

31:                                               ; preds = %30
  %32 = call i32 @get_log_level()
  %33 = icmp sge i32 %32, 4
  br i1 %33, label %34, label %35

34:                                               ; preds = %31
  call void (i32, ptr, ...) @log_var(i32 noundef 4, ptr noundef @.str.19, ptr noundef @__func__._scan_slurm_job_list)
  br label %35

35:                                               ; preds = %34, %31
  br label %36

36:                                               ; preds = %35
  br label %37

37:                                               ; preds = %36
  br label %38

38:                                               ; preds = %37, %26
  br label %39

39:                                               ; preds = %38
  br label %40

40:                                               ; preds = %39
  %41 = load ptr, ptr @job_list, align 8
  %42 = call ptr @list_iterator_create(ptr noundef %41)
  store ptr %42, ptr %4, align 8
  br label %43

43:                                               ; preds = %149, %148, %138, %137, %128, %87, %75, %68, %40
  %44 = load ptr, ptr %4, align 8
  %45 = call ptr @list_next(ptr noundef %44)
  store ptr %45, ptr %1, align 8
  %46 = icmp ne ptr %45, null
  br i1 %46, label %47, label %154

47:                                               ; preds = %43
  br label %48

48:                                               ; preds = %47
  %49 = load i64, ptr getelementptr inbounds nuw (%struct.slurm_conf_t, ptr @slurm_conf, i32 0, i32 42), align 8
  %50 = and i64 %49, 8192
  %51 = icmp ne i64 %50, 0
  br i1 %51, label %52, label %61

52:                                               ; preds = %48
  br label %53

53:                                               ; preds = %52
  %54 = call i32 @get_log_level()
  %55 = icmp sge i32 %54, 4
  br i1 %55, label %56, label %58

56:                                               ; preds = %53
  %57 = load ptr, ptr %1, align 8
  call void (i32, ptr, ...) @log_var(i32 noundef 4, ptr noundef @.str.20, ptr noundef @__func__._scan_slurm_job_list, ptr noundef %57)
  br label %58

58:                                               ; preds = %56, %53
  br label %59

59:                                               ; preds = %58
  br label %60

60:                                               ; preds = %59
  br label %61

61:                                               ; preds = %60, %48
  br label %62

62:                                               ; preds = %61
  br label %63

63:                                               ; preds = %62
  %64 = load ptr, ptr %1, align 8
  %65 = getelementptr inbounds nuw %struct.job_record, ptr %64, i32 0, i32 49
  %66 = load i32, ptr %65, align 8
  %67 = icmp ne i32 %66, 0
  br i1 %67, label %68, label %69

68:                                               ; preds = %63
  br label %43, !llvm.loop !11

69:                                               ; preds = %63
  %70 = load ptr, ptr %1, align 8
  %71 = getelementptr inbounds nuw %struct.job_record, ptr %70, i32 0, i32 60
  %72 = load i32, ptr %71, align 8
  %73 = and i32 %72, 255
  %74 = icmp eq i32 %73, 0
  br i1 %74, label %75, label %76

75:                                               ; preds = %69
  br label %43, !llvm.loop !11

76:                                               ; preds = %69
  %77 = load ptr, ptr %1, align 8
  %78 = getelementptr inbounds nuw %struct.job_record, ptr %77, i32 0, i32 60
  %79 = load i32, ptr %78, align 8
  %80 = and i32 %79, 255
  %81 = icmp eq i32 %80, 2
  br i1 %81, label %82, label %88

82:                                               ; preds = %76
  %83 = load ptr, ptr %1, align 8
  %84 = getelementptr inbounds nuw %struct.job_record, ptr %83, i32 0, i32 97
  %85 = load i32, ptr %84, align 8
  %86 = icmp eq i32 %85, 0
  br i1 %86, label %87, label %88

87:                                               ; preds = %82
  br label %43, !llvm.loop !11

88:                                               ; preds = %82, %76
  %89 = load ptr, ptr %1, align 8
  %90 = getelementptr inbounds nuw %struct.job_record, ptr %89, i32 0, i32 89
  %91 = load ptr, ptr %90, align 8
  %92 = icmp ne ptr %91, null
  br i1 %92, label %93, label %106

93:                                               ; preds = %88
  %94 = load ptr, ptr %1, align 8
  %95 = getelementptr inbounds nuw %struct.job_record, ptr %94, i32 0, i32 89
  %96 = load ptr, ptr %95, align 8
  %97 = getelementptr inbounds nuw %struct.part_record, ptr %96, i32 0, i32 34
  %98 = load ptr, ptr %97, align 8
  %99 = icmp ne ptr %98, null
  br i1 %99, label %100, label %106

100:                                              ; preds = %93
  %101 = load ptr, ptr %1, align 8
  %102 = getelementptr inbounds nuw %struct.job_record, ptr %101, i32 0, i32 89
  %103 = load ptr, ptr %102, align 8
  %104 = getelementptr inbounds nuw %struct.part_record, ptr %103, i32 0, i32 34
  %105 = load ptr, ptr %104, align 8
  store ptr %105, ptr %5, align 8
  br label %110

106:                                              ; preds = %93, %88
  %107 = load ptr, ptr %1, align 8
  %108 = getelementptr inbounds nuw %struct.job_record, ptr %107, i32 0, i32 86
  %109 = load ptr, ptr %108, align 8
  store ptr %109, ptr %5, align 8
  br label %110

110:                                              ; preds = %106, %100
  %111 = load ptr, ptr %1, align 8
  %112 = getelementptr inbounds nuw %struct.job_record, ptr %111, i32 0, i32 60
  %113 = load i32, ptr %112, align 8
  %114 = and i32 %113, 255
  %115 = icmp eq i32 %114, 2
  br i1 %115, label %122, label %116

116:                                              ; preds = %110
  %117 = load ptr, ptr %1, align 8
  %118 = getelementptr inbounds nuw %struct.job_record, ptr %117, i32 0, i32 60
  %119 = load i32, ptr %118, align 8
  %120 = and i32 %119, 255
  %121 = icmp eq i32 %120, 1
  br i1 %121, label %122, label %142

122:                                              ; preds = %116, %110
  %123 = load ptr, ptr @gs_part_list, align 8
  %124 = load ptr, ptr %5, align 8
  %125 = call ptr @list_find_first(ptr noundef %123, ptr noundef @_find_gs_part, ptr noundef %124)
  store ptr %125, ptr %2, align 8
  %126 = load ptr, ptr %2, align 8
  %127 = icmp ne ptr %126, null
  br i1 %127, label %129, label %128

128:                                              ; preds = %122
  br label %43, !llvm.loop !11

129:                                              ; preds = %122
  %130 = load ptr, ptr %2, align 8
  %131 = load ptr, ptr %1, align 8
  %132 = getelementptr inbounds nuw %struct.job_record, ptr %131, i32 0, i32 53
  %133 = load i32, ptr %132, align 8
  %134 = call i32 @_find_job_index(ptr noundef %130, i32 noundef %133)
  store i32 %134, ptr %3, align 4
  %135 = load i32, ptr %3, align 4
  %136 = icmp sge i32 %135, 0
  br i1 %136, label %137, label %138

137:                                              ; preds = %129
  br label %43, !llvm.loop !11

138:                                              ; preds = %129
  %139 = load ptr, ptr %2, align 8
  %140 = load ptr, ptr %1, align 8
  %141 = call zeroext i16 @_add_job_to_part(ptr noundef %139, ptr noundef %140)
  br label %43, !llvm.loop !11

142:                                              ; preds = %116
  %143 = load ptr, ptr @gs_part_list, align 8
  %144 = load ptr, ptr %5, align 8
  %145 = call ptr @list_find_first(ptr noundef %143, ptr noundef @_find_gs_part, ptr noundef %144)
  store ptr %145, ptr %2, align 8
  %146 = load ptr, ptr %2, align 8
  %147 = icmp ne ptr %146, null
  br i1 %147, label %149, label %148

148:                                              ; preds = %142
  br label %43, !llvm.loop !11

149:                                              ; preds = %142
  %150 = load ptr, ptr %1, align 8
  %151 = getelementptr inbounds nuw %struct.job_record, ptr %150, i32 0, i32 53
  %152 = load i32, ptr %151, align 8
  %153 = load ptr, ptr %2, align 8
  call void @_remove_job_from_part(i32 noundef %152, ptr noundef %153, i1 noundef zeroext false)
  br label %43, !llvm.loop !11

154:                                              ; preds = %43
  %155 = load ptr, ptr %4, align 8
  call void @list_iterator_destroy(ptr noundef %155)
  call void @_update_all_active_rows()
  store i32 0, ptr %6, align 4
  br label %156

156:                                              ; preds = %154, %24
  call void @llvm.lifetime.end.p0(i64 8, ptr %5) #8
  call void @llvm.lifetime.end.p0(i64 8, ptr %4) #8
  call void @llvm.lifetime.end.p0(i64 4, ptr %3) #8
  call void @llvm.lifetime.end.p0(i64 8, ptr %2) #8
  call void @llvm.lifetime.end.p0(i64 8, ptr %1) #8
  %157 = load i32, ptr %6, align 4
  switch i32 %157, label %159 [
    i32 0, label %158
    i32 1, label %158
  ]

158:                                              ; preds = %156, %156
  ret void

159:                                              ; preds = %156
  unreachable
}