; Function Attrs: nounwind uwtable
define internal fastcc void @_scan_slurm_job_list() unnamed_addr #0 {
  %1 = load ptr, ptr @job_list, align 8
  %.not = icmp eq ptr %1, null
  %2 = load i64, ptr getelementptr inbounds nuw (i8, ptr @slurm_conf, i64 320), align 8
  %3 = and i64 %2, 8192
  %.not30 = icmp eq i64 %3, 0
  br i1 %.not, label %4, label %9

4:                                                ; preds = %0
  br i1 %.not30, label %77, label %5

5:                                                ; preds = %4
  %6 = tail call i32 @get_log_level() #8
  %7 = icmp sgt i32 %6, 3
  br i1 %7, label %8, label %77

8:                                                ; preds = %5
  tail call void (i32, ptr, ...) @log_var(i32 noundef 4, ptr noundef nonnull @.str.18, ptr noundef nonnull @__func__._scan_slurm_job_list) #8
  br label %77

9:                                                ; preds = %0
  br i1 %.not30, label %14, label %10

10:                                               ; preds = %9
  %11 = tail call i32 @get_log_level() #8
  %12 = icmp sgt i32 %11, 3
  br i1 %12, label %13, label %14

13:                                               ; preds = %10
  tail call void (i32, ptr, ...) @log_var(i32 noundef 4, ptr noundef nonnull @.str.19, ptr noundef nonnull @__func__._scan_slurm_job_list) #8
  br label %14

14:                                               ; preds = %10, %13, %9
  %15 = load ptr, ptr @job_list, align 8
  %16 = tail call ptr @list_iterator_create(ptr noundef %15) #8
  %17 = tail call ptr @list_next(ptr noundef %16) #8
  %.not3242 = icmp eq ptr %17, null
  br i1 %.not3242, label %_find_job_index.exit._crit_edge, label %.lr.ph

.lr.ph:                                           ; preds = %14, %_find_job_index.exit.backedge
  %18 = phi ptr [ %66, %_find_job_index.exit.backedge ], [ %17, %14 ]
  %19 = load i64, ptr getelementptr inbounds nuw (i8, ptr @slurm_conf, i64 320), align 8
  %20 = and i64 %19, 8192
  %.not33 = icmp eq i64 %20, 0
  br i1 %.not33, label %25, label %21

21:                                               ; preds = %.lr.ph
  %22 = tail call i32 @get_log_level() #8
  %23 = icmp sgt i32 %22, 3
  br i1 %23, label %24, label %25

24:                                               ; preds = %21
  tail call void (i32, ptr, ...) @log_var(i32 noundef 4, ptr noundef nonnull @.str.20, ptr noundef nonnull @__func__._scan_slurm_job_list, ptr noundef nonnull %18) #8
  br label %25

25:                                               ; preds = %21, %24, %.lr.ph
  %26 = getelementptr inbounds nuw i8, ptr %18, i64 360
  %27 = load i32, ptr %26, align 8
  %.not34 = icmp eq i32 %27, 0
  br i1 %.not34, label %28, label %_find_job_index.exit.backedge

28:                                               ; preds = %25
  %29 = getelementptr inbounds nuw i8, ptr %18, i64 448
  %30 = load i32, ptr %29, align 8
  %31 = and i32 %30, 255
  %trunc = trunc i32 %30 to i8
  switch i8 %trunc, label %36 [
    i8 0, label %_find_job_index.exit.backedge
    i8 2, label %32
  ]

32:                                               ; preds = %28
  %33 = getelementptr inbounds nuw i8, ptr %18, i64 720
  %34 = load i32, ptr %33, align 8
  %35 = icmp eq i32 %34, 0
  br i1 %35, label %_find_job_index.exit.backedge, label %36

36:                                               ; preds = %28, %32
  %37 = getelementptr inbounds nuw i8, ptr %18, i64 672
  %38 = load ptr, ptr %37, align 8
  %.not35 = icmp eq ptr %38, null
  br i1 %.not35, label %42, label %39

39:                                               ; preds = %36
  %40 = getelementptr inbounds nuw i8, ptr %38, i64 232
  %41 = load ptr, ptr %40, align 8
  %.not36 = icmp eq ptr %41, null
  br i1 %.not36, label %42, label %45

42:                                               ; preds = %39, %36
  %43 = getelementptr inbounds nuw i8, ptr %18, i64 648
  %44 = load ptr, ptr %43, align 8
  br label %45

45:                                               ; preds = %39, %42
  %.0 = phi ptr [ %44, %42 ], [ %41, %39 ]
  %.off = add nsw i32 %31, -1
  %switch = icmp ult i32 %.off, 2
  %46 = load ptr, ptr @gs_part_list, align 8
  %47 = tail call ptr @list_find_first(ptr noundef %46, ptr noundef nonnull @_find_gs_part, ptr noundef %.0) #8
  %.not38 = icmp eq ptr %47, null
  br i1 %switch, label %48, label %67

48:                                               ; preds = %45
  br i1 %.not38, label %_find_job_index.exit.backedge, label %49

49:                                               ; preds = %48
  %50 = getelementptr inbounds nuw i8, ptr %18, i64 392
  %51 = load i32, ptr %50, align 8
  %52 = getelementptr inbounds nuw i8, ptr %47, i64 12
  %53 = load i32, ptr %52, align 4
  %.not.i = icmp eq i32 %53, 0
  br i1 %.not.i, label %_find_job_index.exit.thread, label %.lr.ph.i

.lr.ph.i:                                         ; preds = %49
  %54 = getelementptr inbounds nuw i8, ptr %47, i64 16
  %55 = load ptr, ptr %54, align 8
  %wide.trip.count.i = zext i32 %53 to i64
  br label %56

56:                                               ; preds = %64, %.lr.ph.i
  %indvars.iv.i = phi i64 [ 0, %.lr.ph.i ], [ %indvars.iv.next.i, %64 ]
  %57 = getelementptr inbounds nuw ptr, ptr %55, i64 %indvars.iv.i
  %58 = load ptr, ptr %57, align 8
  %59 = getelementptr inbounds nuw i8, ptr %58, i64 8
  %60 = load ptr, ptr %59, align 8
  %61 = getelementptr inbounds nuw i8, ptr %60, i64 392
  %62 = load i32, ptr %61, align 8
  %63 = icmp eq i32 %62, %51
  br i1 %63, label %_find_job_index.exit.backedge, label %64, !llvm.loop !11

64:                                               ; preds = %56
  %indvars.iv.next.i = add nuw nsw i64 %indvars.iv.i, 1
  %exitcond.not.i = icmp eq i64 %indvars.iv.next.i, %wide.trip.count.i
  br i1 %exitcond.not.i, label %_find_job_index.exit.thread, label %56, !llvm.loop !12

_find_job_index.exit.thread:                      ; preds = %64, %49
  %65 = tail call fastcc zeroext i16 @_add_job_to_part(ptr noundef %47, ptr noundef nonnull %18)
  br label %_find_job_index.exit.backedge

_find_job_index.exit.backedge:                    ; preds = %56, %_find_job_index.exit.thread, %68, %25, %32, %48, %67, %28
  %66 = tail call ptr @list_next(ptr noundef %16) #8
  %.not32 = icmp eq ptr %66, null
  br i1 %.not32, label %_find_job_index.exit._crit_edge, label %.lr.ph, !llvm.loop !11

67:                                               ; preds = %45
  br i1 %.not38, label %_find_job_index.exit.backedge, label %68

68:                                               ; preds = %67
  %69 = getelementptr inbounds nuw i8, ptr %18, i64 392
  %70 = load i32, ptr %69, align 8
  tail call fastcc void @_remove_job_from_part(i32 noundef %70, ptr noundef %47, i1 noundef zeroext false)
  br label %_find_job_index.exit.backedge

_find_job_index.exit._crit_edge:                  ; preds = %_find_job_index.exit.backedge, %14
  tail call void @list_iterator_destroy(ptr noundef %16) #8
  %71 = load ptr, ptr @gs_part_list, align 8
  tail call void @list_sort(ptr noundef %71, ptr noundef nonnull @_sort_partitions) #8
  %72 = load ptr, ptr @gs_part_list, align 8
  %73 = tail call ptr @list_iterator_create(ptr noundef %72) #8
  %74 = tail call ptr @list_next(ptr noundef %73) #8
  %.not3.i = icmp eq ptr %74, null
  br i1 %.not3.i, label %_update_all_active_rows.exit, label %.lr.ph.i39

.lr.ph.i39:                                       ; preds = %_find_job_index.exit._crit_edge, %.lr.ph.i39
  %75 = phi ptr [ %76, %.lr.ph.i39 ], [ %74, %_find_job_index.exit._crit_edge ]
  tail call fastcc void @_update_active_row(ptr noundef %75, i32 noundef 1)
  %76 = tail call ptr @list_next(ptr noundef %73) #8
  %.not.i40 = icmp eq ptr %76, null
  br i1 %.not.i40, label %_update_all_active_rows.exit, label %.lr.ph.i39, !llvm.loop !13

_update_all_active_rows.exit:                     ; preds = %.lr.ph.i39, %_find_job_index.exit._crit_edge
  tail call void @list_iterator_destroy(ptr noundef %73) #8
  br label %77

77:                                               ; preds = %4, %8, %5, %_update_all_active_rows.exit
  ret void
}